; Function Attrs: mustprogress uwtable
define noundef zeroext i1 @_ZN6google8protobuf8compiler20CommandLineInterface18ExpandArgumentFileERKNSt7__cxx1112basic_stringIcSt11char_traitsIcESaIcEEEPSt6vectorIS8_SaIS8_EE(ptr nocapture nonnull readnone align 8 %this, ptr noundef nonnull align 8 dereferenceable(32) %file, ptr noundef %arguments) local_unnamed_addr #5 align 2 personality ptr @__gxx_personality_v0 {
entry:
  %file_stream = alloca %"class.std::basic_ifstream", align 8
  %argument = alloca %"class.std::__cxx11::basic_string", align 8
  %call = tail call noundef ptr @_ZNKSt7__cxx1112basic_stringIcSt11char_traitsIcESaIcEE5c_strEv(ptr noundef nonnull align 8 dereferenceable(32) %file) #29
  call void @_ZNSt14basic_ifstreamIcSt11char_traitsIcEEC1EPKcSt13_Ios_Openmode(ptr noundef nonnull align 8 dereferenceable(256) %file_stream, ptr noundef %call, i32 noundef 8)
  %call2 = invoke noundef zeroext i1 @_ZNSt14basic_ifstreamIcSt11char_traitsIcEE7is_openEv(ptr noundef nonnull align 8 dereferenceable(256) %file_stream)
          to label %invoke.cont unwind label %lpad

invoke.cont:                                      ; preds = %entry
  br i1 %call2, label %if.end, label %cleanup

lpad:                                             ; preds = %entry
  %0 = landingpad { ptr, i32 }
          cleanup
  br label %ehcleanup

if.end:                                           ; preds = %invoke.cont
  call void @_ZNSt7__cxx1112basic_stringIcSt11char_traitsIcESaIcEEC1Ev(ptr noundef nonnull align 8 dereferenceable(32) %argument) #29
  %_M_finish.i = getelementptr inbounds i8, ptr %arguments, i64 8
  %_M_end_of_storage.i = getelementptr inbounds i8, ptr %arguments, i64 16
  br label %while.cond

while.cond:                                       ; preds = %while.cond.backedge, %if.end
  %call5 = invoke noundef nonnull align 8 dereferenceable(16) ptr @_ZSt7getlineIcSt11char_traitsIcESaIcEERSt13basic_istreamIT_T0_ES7_RNSt7__cxx1112basic_stringIS4_S5_T1_EE(ptr noundef nonnull align 8 dereferenceable(16) %file_stream, ptr noundef nonnull align 8 dereferenceable(32) %argument)
          to label %invoke.cont4 unwind label %lpad3

invoke.cont4:                                     ; preds = %while.cond
  %vtable = load ptr, ptr %call5, align 8
  %vbase.offset.ptr = getelementptr i8, ptr %vtable, i64 -24
  %vbase.offset = load i64, ptr %vbase.offset.ptr, align 8
  %add.ptr = getelementptr inbounds i8, ptr %call5, i64 %vbase.offset
  %call7 = invoke noundef zeroext i1 @_ZNKSt9basic_iosIcSt11char_traitsIcEEcvbEv(ptr noundef nonnull align 8 dereferenceable(264) %add.ptr)
          to label %invoke.cont6 unwind label %lpad3

invoke.cont6:                                     ; preds = %invoke.cont4
  br i1 %call7, label %while.body, label %while.end

while.body:                                       ; preds = %invoke.cont6
  %1 = load ptr, ptr %_M_finish.i, align 8
  %2 = load ptr, ptr %_M_end_of_storage.i, align 8
  %cmp.not.i = icmp eq ptr %1, %2
  br i1 %cmp.not.i, label %if.else.i, label %if.then.i

if.then.i:                                        ; preds = %while.body
  invoke void @_ZNSt7__cxx1112basic_stringIcSt11char_traitsIcESaIcEEC1ERKS4_(ptr noundef nonnull align 8 dereferenceable(32) %1, ptr noundef nonnull align 8 dereferenceable(32) %argument)
          to label %.noexc unwind label %lpad3

.noexc:                                           ; preds = %if.then.i
  %3 = load ptr, ptr %_M_finish.i, align 8
  %incdec.ptr.i = getelementptr inbounds i8, ptr %3, i64 32
  store ptr %incdec.ptr.i, ptr %_M_finish.i, align 8
  br label %while.cond.backedge

if.else.i:                                        ; preds = %while.body
  invoke void @_ZNSt6vectorINSt7__cxx1112basic_stringIcSt11char_traitsIcESaIcEEESaIS5_EE17_M_realloc_insertIJRKS5_EEEvN9__gnu_cxx17__normal_iteratorIPS5_S7_EEDpOT_(ptr noundef nonnull align 8 dereferenceable(24) %arguments, ptr %1, ptr noundef nonnull align 8 dereferenceable(32) %argument)
          to label %while.cond.backedge unwind label %lpad3

while.cond.backedge:                              ; preds = %if.else.i, %.noexc
  br label %while.cond

lpad3:                                            ; preds = %if.else.i, %if.then.i, %invoke.cont4, %while.cond
  %4 = landingpad { ptr, i32 }
          cleanup
  call void @_ZNSt7__cxx1112basic_stringIcSt11char_traitsIcESaIcEED1Ev(ptr noundef nonnull align 8 dereferenceable(32) %argument) #29
  br label %ehcleanup

while.end:                                        ; preds = %invoke.cont6
  call void @_ZNSt7__cxx1112basic_stringIcSt11char_traitsIcESaIcEED1Ev(ptr noundef nonnull align 8 dereferenceable(32) %argument) #29
  br label %cleanup

cleanup:                                          ; preds = %invoke.cont, %while.end
  call void @_ZNSt14basic_ifstreamIcSt11char_traitsIcEED1Ev(ptr noundef nonnull align 8 dereferenceable(256) %file_stream) #29
  ret i1 %call2

ehcleanup:                                        ; preds = %lpad3, %lpad
  %.pn = phi { ptr, i32 } [ %4, %lpad3 ], [ %0, %lpad ]
  call void @_ZNSt14basic_ifstreamIcSt11char_traitsIcEED1Ev(ptr noundef nonnull align 8 dereferenceable(256) %file_stream) #29
  resume { ptr, i32 } %.pn
}